target datalayout = "e-m:e-p270:32:32-p271:32:32-p272:64:64-i64:64-i128:128-f80:128-n8:16:32:64-S128"
target triple = "x86_64-pc-linux-gnu"

%struct.OperationConfig = type { i8, ptr, ptr, ptr, ptr, ptr, ptr, i8, i8, i8, i64, i8, i8, i8, i8, i8, ptr, i8, ptr, i8, ptr, i64, ptr, %struct.dynbuf, ptr, ptr, i64, i64, i64, i64, ptr, ptr, ptr, ptr, i64, i64, i16, ptr, i64, i64, i64, i64, ptr, ptr, ptr, ptr, ptr, ptr, ptr, ptr, ptr, ptr, ptr, ptr, ptr, ptr, i32, ptr, ptr, ptr, ptr, i8, ptr, i8, i8, i8, i8, i8, i8, i8, i8, i8, i8, i8, i8, i8, i8, ptr, ptr, ptr, ptr, ptr, ptr, i64, ptr, ptr, ptr, ptr, ptr, ptr, ptr, ptr, ptr, ptr, ptr, ptr, ptr, ptr, ptr, ptr, ptr, ptr, ptr, ptr, ptr, ptr, ptr, ptr, ptr, ptr, ptr, ptr, ptr, ptr, i8, ptr, ptr, ptr, ptr, i64, i8, i8, i8, i8, i8, i8, i8, i8, i8, i8, i8, i8, i8, i8, i8, i8, i8, i8, i8, i8, ptr, ptr, ptr, ptr, i64, i64, i64, i64, i64, i32, i64, ptr, ptr, ptr, ptr, ptr, ptr, ptr, ptr, i32, i64, i64, i8, i8, i8, i8, i32, ptr, i8, i64, ptr, ptr, i8, i8, i64, i8, i8, i64, i64, ptr, ptr, i32, i64, i64, i8, i8, i8, i8, i8, i8, i8, i8, i64, i64, i8, i32, i8, i64, i8, i8, i8, i8, i8, i8, i8, i8, i8, ptr, i8, ptr, i8, i8, i8, i64, i8, i8, i8, i64, i8, ptr, i8, ptr, i32, i8, ptr, ptr, ptr, %struct.State, i8, i8, ptr, ptr, ptr }
%struct.dynbuf = type { ptr, i64, i64, i64 }
%struct.State = type { ptr, ptr, ptr, ptr, ptr, ptr, i64, i64, i64, i64 }
%struct.sockaddr = type { i16, [14 x i8] }
%union.__SOCKADDR_ARG = type { ptr }

@.str.251 = private unnamed_addr constant [57 x i8] c"Setting type of service to %d failed with errno %d: %s;\0A\00", align 1
@.str.252 = private unnamed_addr constant [44 x i8] c"VLAN priority %d failed with errno %d: %s;\0A\00", align 1

; Function Attrs: nounwind uwtable
define internal i32 @get_address_family(i32 noundef %0) #0 {
  %2 = alloca i32, align 4
  %3 = alloca i32, align 4
  %4 = alloca %struct.sockaddr, align 2
  %5 = alloca i32, align 4
  %6 = alloca %union.__SOCKADDR_ARG, align 8
  %7 = alloca i32, align 4
  store i32 %0, ptr %3, align 4, !tbaa !20
  call void @llvm.lifetime.start.p0(i64 16, ptr %4) #10
  call void @llvm.lifetime.start.p0(i64 4, ptr %5) #10
  store i32 16, ptr %5, align 4, !tbaa !20
  call void @llvm.memset.p0.i64(ptr align 2 %4, i8 0, i64 16, i1 false)
  %8 = load i32, ptr %3, align 4, !tbaa !20
  store ptr %4, ptr %6, align 8, !tbaa !100
  %9 = getelementptr inbounds nuw %union.__SOCKADDR_ARG, ptr %6, i32 0, i32 0
  %10 = load ptr, ptr %9, align 8
  %11 = call i32 @getsockname(i32 noundef %8, ptr %10, ptr noundef %5) #10
  %12 = icmp eq i32 %11, 0
  br i1 %12, label %13, label %17

13:                                               ; preds = %1
  %14 = getelementptr inbounds nuw %struct.sockaddr, ptr %4, i32 0, i32 0
  %15 = load i16, ptr %14, align 2, !tbaa !407
  %16 = zext i16 %15 to i32
  store i32 %16, ptr %2, align 4
  store i32 1, ptr %7, align 4
  br label %18

17:                                               ; preds = %1
  store i32 0, ptr %2, align 4
  store i32 1, ptr %7, align 4
  br label %18

18:                                               ; preds = %17, %13
  call void @llvm.lifetime.end.p0(i64 4, ptr %5) #10
  call void @llvm.lifetime.end.p0(i64 16, ptr %4) #10
  %19 = load i32, ptr %2, align 4
  ret i32 %19
}

; Function Attrs: nounwind uwtable
define internal i32 @sockopt_callback(ptr noundef %0, i32 noundef %1, i32 noundef %2) #0 {
  %4 = alloca i32, align 4
  %5 = alloca ptr, align 8
  %6 = alloca i32, align 4
  %7 = alloca i32, align 4
  %8 = alloca ptr, align 8
  %9 = alloca i32, align 4
  %10 = alloca i32, align 4
  %11 = alloca i32, align 4
  %12 = alloca i32, align 4
  %13 = alloca i32, align 4
  %14 = alloca i32, align 4
  store ptr %0, ptr %5, align 8, !tbaa !41
  store i32 %1, ptr %6, align 4, !tbaa !20
  store i32 %2, ptr %7, align 4, !tbaa !20
  call void @llvm.lifetime.start.p0(i64 8, ptr %8) #10
  %15 = load ptr, ptr %5, align 8, !tbaa !41
  store ptr %15, ptr %8, align 8, !tbaa !4
  %16 = load i32, ptr %7, align 4, !tbaa !20
  %17 = icmp ne i32 %16, 0
  br i1 %17, label %18, label %19

18:                                               ; preds = %3
  store i32 0, ptr %4, align 4
  store i32 1, ptr %9, align 4
  br label %76

19:                                               ; preds = %3
  %20 = load ptr, ptr %8, align 8, !tbaa !4
  %21 = getelementptr inbounds nuw %struct.OperationConfig, ptr %20, i32 0, i32 40
  %22 = load i64, ptr %21, align 8, !tbaa !403
  %23 = icmp sgt i64 %22, 0
  br i1 %23, label %24, label %51

24:                                               ; preds = %19
  call void @llvm.lifetime.start.p0(i64 4, ptr %10) #10
  %25 = load ptr, ptr %8, align 8, !tbaa !4
  %26 = getelementptr inbounds nuw %struct.OperationConfig, ptr %25, i32 0, i32 40
  %27 = load i64, ptr %26, align 8, !tbaa !403
  %28 = trunc i64 %27 to i32
  store i32 %28, ptr %10, align 4, !tbaa !20
  call void @llvm.lifetime.start.p0(i64 4, ptr %11) #10
  store i32 0, ptr %11, align 4, !tbaa !20
  %29 = load i32, ptr %6, align 4, !tbaa !20
  %30 = call i32 @get_address_family(i32 noundef %29)
  switch i32 %30, label %37 [
    i32 2, label %31
    i32 10, label %34
  ]

31:                                               ; preds = %24
  %32 = load i32, ptr %6, align 4, !tbaa !20
  %33 = call i32 @setsockopt(i32 noundef %32, i32 noundef 0, i32 noundef 1, ptr noundef %10, i32 noundef 4) #10
  store i32 %33, ptr %11, align 4, !tbaa !20
  br label %37

34:                                               ; preds = %24
  %35 = load i32, ptr %6, align 4, !tbaa !20
  %36 = call i32 @setsockopt(i32 noundef %35, i32 noundef 41, i32 noundef 67, ptr noundef %10, i32 noundef 4) #10
  store i32 %36, ptr %11, align 4, !tbaa !20
  br label %37

37:                                               ; preds = %24, %34, %31
  %38 = load i32, ptr %11, align 4, !tbaa !20
  %39 = icmp slt i32 %38, 0
  br i1 %39, label %40, label %50

40:                                               ; preds = %37
  call void @llvm.lifetime.start.p0(i64 4, ptr %12) #10
  %41 = call ptr @__errno_location() #12
  %42 = load i32, ptr %41, align 4, !tbaa !20
  store i32 %42, ptr %12, align 4, !tbaa !20
  %43 = load ptr, ptr %8, align 8, !tbaa !4
  %44 = getelementptr inbounds nuw %struct.OperationConfig, ptr %43, i32 0, i32 224
  %45 = load ptr, ptr %44, align 8, !tbaa !106
  %46 = load i32, ptr %10, align 4, !tbaa !20
  %47 = load i32, ptr %12, align 4, !tbaa !20
  %48 = load i32, ptr %12, align 4, !tbaa !20
  %49 = call ptr @strerror(i32 noundef %48) #10
  call void (ptr, ptr, ...) @warnf(ptr noundef %45, ptr noundef @.str.251, i32 noundef %46, i32 noundef %47, ptr noundef %49)
  call void @llvm.lifetime.end.p0(i64 4, ptr %12) #10
  br label %50

50:                                               ; preds = %40, %37
  call void @llvm.lifetime.end.p0(i64 4, ptr %11) #10
  call void @llvm.lifetime.end.p0(i64 4, ptr %10) #10
  br label %51

51:                                               ; preds = %50, %19
  %52 = load ptr, ptr %8, align 8, !tbaa !4
  %53 = getelementptr inbounds nuw %struct.OperationConfig, ptr %52, i32 0, i32 41
  %54 = load i64, ptr %53, align 8, !tbaa !404
  %55 = icmp sgt i64 %54, 0
  br i1 %55, label %56, label %75

56:                                               ; preds = %51
  call void @llvm.lifetime.start.p0(i64 4, ptr %13) #10
  %57 = load ptr, ptr %8, align 8, !tbaa !4
  %58 = getelementptr inbounds nuw %struct.OperationConfig, ptr %57, i32 0, i32 41
  %59 = load i64, ptr %58, align 8, !tbaa !404
  %60 = trunc i64 %59 to i32
  store i32 %60, ptr %13, align 4, !tbaa !20
  %61 = load i32, ptr %6, align 4, !tbaa !20
  %62 = call i32 @setsockopt(i32 noundef %61, i32 noundef 1, i32 noundef 12, ptr noundef %13, i32 noundef 4) #10
  %63 = icmp ne i32 %62, 0
  br i1 %63, label %64, label %74

64:                                               ; preds = %56
  call void @llvm.lifetime.start.p0(i64 4, ptr %14) #10
  %65 = call ptr @__errno_location() #12
  %66 = load i32, ptr %65, align 4, !tbaa !20
  store i32 %66, ptr %14, align 4, !tbaa !20
  %67 = load ptr, ptr %8, align 8, !tbaa !4
  %68 = getelementptr inbounds nuw %struct.OperationConfig, ptr %67, i32 0, i32 224
  %69 = load ptr, ptr %68, align 8, !tbaa !106
  %70 = load i32, ptr %13, align 4, !tbaa !20
  %71 = load i32, ptr %14, align 4, !tbaa !20
  %72 = load i32, ptr %14, align 4, !tbaa !20
  %73 = call ptr @strerror(i32 noundef %72) #10
  call void (ptr, ptr, ...) @warnf(ptr noundef %69, ptr noundef @.str.252, i32 noundef %70, i32 noundef %71, ptr noundef %73)
  call void @llvm.lifetime.end.p0(i64 4, ptr %14) #10
  br label %74

74:                                               ; preds = %64, %56
  call void @llvm.lifetime.end.p0(i64 4, ptr %13) #10
  br label %75

75:                                               ; preds = %74, %51
  store i32 0, ptr %4, align 4
  store i32 1, ptr %9, align 4
  br label %76

76:                                               ; preds = %75, %18
  call void @llvm.lifetime.end.p0(i64 8, ptr %8) #10
  %77 = load i32, ptr %4, align 4
  ret i32 %77
}