; Function Attrs: nounwind uwtable
define internal noundef i32 @sockopt_callback(ptr noundef readonly captures(none) %0, i32 noundef %1, i32 noundef %2) #0 {
  %4 = alloca %struct.sockaddr, align 2
  %5 = alloca i32, align 4
  %6 = alloca i32, align 4
  %7 = alloca i32, align 4
  %.not = icmp eq i32 %2, 0
  br i1 %.not, label %8, label %45

8:                                                ; preds = %3
  %9 = getelementptr inbounds nuw i8, ptr %0, i64 296
  %10 = load i64, ptr %9, align 8, !tbaa !376
  %11 = icmp sgt i64 %10, 0
  br i1 %11, label %12, label %30

12:                                               ; preds = %8
  call void @llvm.lifetime.start.p0(i64 4, ptr nonnull %6) #16
  %13 = trunc i64 %10 to i32
  store i32 %13, ptr %6, align 4, !tbaa !98
  call void @llvm.lifetime.start.p0(i64 16, ptr nonnull %4) #16
  call void @llvm.lifetime.start.p0(i64 4, ptr nonnull %5) #16
  store i32 16, ptr %5, align 4, !tbaa !98
  call void @llvm.memset.p0.i64(ptr noundef nonnull align 2 dereferenceable(16) %4, i8 0, i64 16, i1 false)
  %14 = call i32 @getsockname(i32 noundef %1, ptr nonnull %4, ptr noundef nonnull %5) #16
  %15 = icmp eq i32 %14, 0
  %16 = load i16, ptr %4, align 2
  call void @llvm.lifetime.end.p0(i64 4, ptr nonnull %5) #16
  call void @llvm.lifetime.end.p0(i64 16, ptr nonnull %4) #16
  %trunc = select i1 %15, i16 %16, i16 0
  switch i16 %trunc, label %.thread [
    i16 2, label %17
    i16 10, label %19
  ]

17:                                               ; preds = %12
  %18 = call i32 @setsockopt(i32 noundef %1, i32 noundef 0, i32 noundef 1, ptr noundef nonnull %6, i32 noundef 4) #16
  br label %21

19:                                               ; preds = %12
  %20 = call i32 @setsockopt(i32 noundef %1, i32 noundef 41, i32 noundef 67, ptr noundef nonnull %6, i32 noundef 4) #16
  br label %21

21:                                               ; preds = %19, %17
  %.017 = phi i32 [ %20, %19 ], [ %18, %17 ]
  %22 = icmp slt i32 %.017, 0
  br i1 %22, label %23, label %.thread

23:                                               ; preds = %21
  %24 = tail call ptr @__errno_location() #18
  %25 = load i32, ptr %24, align 4, !tbaa !98
  %26 = getelementptr inbounds nuw i8, ptr %0, i64 1328
  %27 = load ptr, ptr %26, align 8, !tbaa !96
  %28 = load i32, ptr %6, align 4, !tbaa !98
  %29 = call ptr @strerror(i32 noundef %25) #16
  call void (ptr, ptr, ...) @warnf(ptr noundef %27, ptr noundef nonnull @.str.251, i32 noundef %28, i32 noundef %25, ptr noundef %29) #16
  br label %.thread

.thread:                                          ; preds = %12, %23, %21
  call void @llvm.lifetime.end.p0(i64 4, ptr nonnull %6) #16
  br label %30

30:                                               ; preds = %.thread, %8
  %31 = getelementptr inbounds nuw i8, ptr %0, i64 304
  %32 = load i64, ptr %31, align 8, !tbaa !377
  %33 = icmp sgt i64 %32, 0
  br i1 %33, label %34, label %45

34:                                               ; preds = %30
  call void @llvm.lifetime.start.p0(i64 4, ptr nonnull %7) #16
  %35 = trunc i64 %32 to i32
  store i32 %35, ptr %7, align 4, !tbaa !98
  %36 = call i32 @setsockopt(i32 noundef %1, i32 noundef 1, i32 noundef 12, ptr noundef nonnull %7, i32 noundef 4) #16
  %.not18 = icmp eq i32 %36, 0
  br i1 %.not18, label %44, label %37

37:                                               ; preds = %34
  %38 = tail call ptr @__errno_location() #18
  %39 = load i32, ptr %38, align 4, !tbaa !98
  %40 = getelementptr inbounds nuw i8, ptr %0, i64 1328
  %41 = load ptr, ptr %40, align 8, !tbaa !96
  %42 = load i32, ptr %7, align 4, !tbaa !98
  %43 = call ptr @strerror(i32 noundef %39) #16
  call void (ptr, ptr, ...) @warnf(ptr noundef %41, ptr noundef nonnull @.str.252, i32 noundef %42, i32 noundef %39, ptr noundef %43) #16
  br label %44

44:                                               ; preds = %37, %34
  call void @llvm.lifetime.end.p0(i64 4, ptr nonnull %7) #16
  br label %45

45:                                               ; preds = %30, %44, %3
  ret i32 0
}